target datalayout = "e-m:e-p270:32:32-p271:32:32-p272:64:64-i64:64-i128:128-f80:128-n8:16:32:64-S128"
target triple = "x86_64-pc-linux-gnu"

%struct.Abc_Obj_t_ = type { ptr, ptr, i32, i32, %struct.Vec_Int_t_, %struct.Vec_Int_t_, %union.anon, %union.anon.0 }
%struct.Vec_Int_t_ = type { i32, i32, ptr }
%union.anon = type { ptr }
%union.anon.0 = type { ptr }
%struct.Abc_Ntk_t_ = type { i32, i32, ptr, ptr, ptr, ptr, ptr, ptr, ptr, ptr, ptr, ptr, ptr, [11 x i32], i32, i32, i32, i32, ptr, i32, ptr, ptr, i32, i32, i32, double, i32, %struct.Vec_Int_t_, ptr, ptr, ptr, ptr, ptr, float, i32, ptr, ptr, ptr, ptr, ptr, ptr, ptr, ptr, ptr, ptr, ptr, ptr, ptr, ptr, ptr, ptr, ptr, ptr, ptr, ptr, ptr }
%struct.Vec_Ptr_t_ = type { i32, i32, ptr }

; Function Attrs: nounwind uwtable
define internal i32 @Abc_ObjFaninNum(ptr noundef %0) #0 {
  %2 = alloca ptr, align 8
  store ptr %0, ptr %2, align 8
  %3 = load ptr, ptr %2, align 8
  %4 = getelementptr inbounds %struct.Abc_Obj_t_, ptr %3, i32 0, i32 4
  %5 = getelementptr inbounds %struct.Vec_Int_t_, ptr %4, i32 0, i32 1
  %6 = load i32, ptr %5, align 4
  ret i32 %6
}

; Function Attrs: nounwind uwtable
define internal i32 @Abc_ObjIsCi(ptr noundef %0) #0 {
  %2 = alloca ptr, align 8
  store ptr %0, ptr %2, align 8
  %3 = load ptr, ptr %2, align 8
  %4 = getelementptr inbounds %struct.Abc_Obj_t_, ptr %3, i32 0, i32 3
  %5 = load i32, ptr %4, align 4
  %6 = and i32 %5, 15
  %7 = icmp eq i32 %6, 2
  br i1 %7, label %14, label %8

8:                                                ; preds = %1
  %9 = load ptr, ptr %2, align 8
  %10 = getelementptr inbounds %struct.Abc_Obj_t_, ptr %9, i32 0, i32 3
  %11 = load i32, ptr %10, align 4
  %12 = and i32 %11, 15
  %13 = icmp eq i32 %12, 5
  br label %14

14:                                               ; preds = %8, %1
  %15 = phi i1 [ true, %1 ], [ %13, %8 ]
  %16 = zext i1 %15 to i32
  ret i32 %16
}

; Function Attrs: nounwind uwtable
define internal ptr @Abc_ObjFanin1(ptr noundef %0) #0 {
  %2 = alloca ptr, align 8
  store ptr %0, ptr %2, align 8
  %3 = load ptr, ptr %2, align 8
  %4 = getelementptr inbounds %struct.Abc_Obj_t_, ptr %3, i32 0, i32 0
  %5 = load ptr, ptr %4, align 8
  %6 = getelementptr inbounds %struct.Abc_Ntk_t_, ptr %5, i32 0, i32 5
  %7 = load ptr, ptr %6, align 8
  %8 = getelementptr inbounds %struct.Vec_Ptr_t_, ptr %7, i32 0, i32 2
  %9 = load ptr, ptr %8, align 8
  %10 = load ptr, ptr %2, align 8
  %11 = getelementptr inbounds %struct.Abc_Obj_t_, ptr %10, i32 0, i32 4
  %12 = getelementptr inbounds %struct.Vec_Int_t_, ptr %11, i32 0, i32 2
  %13 = load ptr, ptr %12, align 8
  %14 = getelementptr inbounds i32, ptr %13, i64 1
  %15 = load i32, ptr %14, align 4
  %16 = sext i32 %15 to i64
  %17 = getelementptr inbounds ptr, ptr %9, i64 %16
  %18 = load ptr, ptr %17, align 8
  ret ptr %18
}

; Function Attrs: nounwind uwtable
define internal ptr @Abc_ObjFanin0(ptr noundef %0) #0 {
  %2 = alloca ptr, align 8
  store ptr %0, ptr %2, align 8
  %3 = load ptr, ptr %2, align 8
  %4 = getelementptr inbounds %struct.Abc_Obj_t_, ptr %3, i32 0, i32 0
  %5 = load ptr, ptr %4, align 8
  %6 = getelementptr inbounds %struct.Abc_Ntk_t_, ptr %5, i32 0, i32 5
  %7 = load ptr, ptr %6, align 8
  %8 = getelementptr inbounds %struct.Vec_Ptr_t_, ptr %7, i32 0, i32 2
  %9 = load ptr, ptr %8, align 8
  %10 = load ptr, ptr %2, align 8
  %11 = getelementptr inbounds %struct.Abc_Obj_t_, ptr %10, i32 0, i32 4
  %12 = getelementptr inbounds %struct.Vec_Int_t_, ptr %11, i32 0, i32 2
  %13 = load ptr, ptr %12, align 8
  %14 = getelementptr inbounds i32, ptr %13, i64 0
  %15 = load i32, ptr %14, align 4
  %16 = sext i32 %15 to i64
  %17 = getelementptr inbounds ptr, ptr %9, i64 %16
  %18 = load ptr, ptr %17, align 8
  ret ptr %18
}

; Function Attrs: nounwind uwtable
define internal i32 @Abc_AigNodeIsAnd(ptr noundef %0) #0 {
  %2 = alloca ptr, align 8
  store ptr %0, ptr %2, align 8
  %3 = load ptr, ptr %2, align 8
  %4 = call i32 @Abc_ObjFaninNum(ptr noundef %3)
  %5 = icmp eq i32 %4, 2
  %6 = zext i1 %5 to i32
  ret i32 %6
}

; Function Attrs: nounwind uwtable
define i32 @Abc_AigNodeIsAcyclic(ptr noundef %0, ptr noundef %1) #0 {
  %3 = alloca i32, align 4
  %4 = alloca ptr, align 8
  %5 = alloca ptr, align 8
  %6 = alloca ptr, align 8
  %7 = alloca ptr, align 8
  %8 = alloca ptr, align 8
  %9 = alloca ptr, align 8
  %10 = alloca ptr, align 8
  %11 = alloca ptr, align 8
  store ptr %0, ptr %4, align 8
  store ptr %1, ptr %5, align 8
  %12 = load ptr, ptr %4, align 8
  %13 = call i32 @Abc_AigNodeIsAnd(ptr noundef %12)
  %14 = icmp ne i32 %13, 0
  br i1 %14, label %16, label %15

15:                                               ; preds = %2
  store i32 1, ptr %3, align 4
  br label %68

16:                                               ; preds = %2
  %17 = load ptr, ptr %4, align 8
  %18 = call ptr @Abc_ObjFanin0(ptr noundef %17)
  store ptr %18, ptr %6, align 8
  %19 = load ptr, ptr %4, align 8
  %20 = call ptr @Abc_ObjFanin1(ptr noundef %19)
  store ptr %20, ptr %7, align 8
  %21 = load ptr, ptr %5, align 8
  %22 = load ptr, ptr %6, align 8
  %23 = icmp eq ptr %21, %22
  br i1 %23, label %28, label %24

24:                                               ; preds = %16
  %25 = load ptr, ptr %5, align 8
  %26 = load ptr, ptr %7, align 8
  %27 = icmp eq ptr %25, %26
  br i1 %27, label %28, label %29

28:                                               ; preds = %24, %16
  store i32 0, ptr %3, align 4
  br label %68

29:                                               ; preds = %24
  %30 = load ptr, ptr %6, align 8
  %31 = call i32 @Abc_ObjIsCi(ptr noundef %30)
  %32 = icmp ne i32 %31, 0
  br i1 %32, label %33, label %34

33:                                               ; preds = %29
  store ptr null, ptr %8, align 8
  store ptr null, ptr %9, align 8
  br label %48

34:                                               ; preds = %29
  %35 = load ptr, ptr %6, align 8
  %36 = call ptr @Abc_ObjFanin0(ptr noundef %35)
  store ptr %36, ptr %8, align 8
  %37 = load ptr, ptr %6, align 8
  %38 = call ptr @Abc_ObjFanin1(ptr noundef %37)
  store ptr %38, ptr %9, align 8
  %39 = load ptr, ptr %5, align 8
  %40 = load ptr, ptr %8, align 8
  %41 = icmp eq ptr %39, %40
  br i1 %41, label %46, label %42

42:                                               ; preds = %34
  %43 = load ptr, ptr %5, align 8
  %44 = load ptr, ptr %9, align 8
  %45 = icmp eq ptr %43, %44
  br i1 %45, label %46, label %47

46:                                               ; preds = %42, %34
  store i32 0, ptr %3, align 4
  br label %68

47:                                               ; preds = %42
  br label %48

48:                                               ; preds = %47, %33
  %49 = load ptr, ptr %7, align 8
  %50 = call i32 @Abc_ObjIsCi(ptr noundef %49)
  %51 = icmp ne i32 %50, 0
  br i1 %51, label %52, label %53

52:                                               ; preds = %48
  store ptr null, ptr %10, align 8
  store ptr null, ptr %11, align 8
  br label %67

53:                                               ; preds = %48
  %54 = load ptr, ptr %7, align 8
  %55 = call ptr @Abc_ObjFanin0(ptr noundef %54)
  store ptr %55, ptr %10, align 8
  %56 = load ptr, ptr %7, align 8
  %57 = call ptr @Abc_ObjFanin1(ptr noundef %56)
  store ptr %57, ptr %11, align 8
  %58 = load ptr, ptr %5, align 8
  %59 = load ptr, ptr %10, align 8
  %60 = icmp eq ptr %58, %59
  br i1 %60, label %65, label %61

61:                                               ; preds = %53
  %62 = load ptr, ptr %5, align 8
  %63 = load ptr, ptr %11, align 8
  %64 = icmp eq ptr %62, %63
  br i1 %64, label %65, label %66

65:                                               ; preds = %61, %53
  store i32 0, ptr %3, align 4
  br label %68

66:                                               ; preds = %61
  br label %67

67:                                               ; preds = %66, %52
  store i32 1, ptr %3, align 4
  br label %68

68:                                               ; preds = %67, %65, %46, %28, %15
  %69 = load i32, ptr %3, align 4
  ret i32 %69
}