; Function Attrs: mustprogress nofree norecurse nosync nounwind willreturn memory(read, inaccessiblemem: none) uwtable
define range(i32 0, 2) i32 @Abc_AigNodeIsAcyclic(ptr noundef readonly captures(none) %0, ptr noundef readnone %1) local_unnamed_addr #7 {
  %3 = getelementptr i8, ptr %0, i64 28
  %.val41 = load i32, ptr %3, align 4
  %.not = icmp eq i32 %.val41, 2
  br i1 %.not, label %4, label %50

4:                                                ; preds = %2
  %.val31 = load ptr, ptr %0, align 8
  %5 = getelementptr i8, ptr %0, i64 32
  %.val32 = load ptr, ptr %5, align 8
  %6 = getelementptr i8, ptr %.val31, i64 32
  %.val31.val = load ptr, ptr %6, align 8
  %.val32.val = load i32, ptr %.val32, align 4
  %7 = getelementptr i8, ptr %.val31.val, i64 8
  %.val31.val.val = load ptr, ptr %7, align 8
  %8 = sext i32 %.val32.val to i64
  %9 = getelementptr inbounds ptr, ptr %.val31.val.val, i64 %8
  %10 = load ptr, ptr %9, align 8
  %11 = getelementptr i8, ptr %.val32, i64 4
  %.val38.val = load i32, ptr %11, align 4
  %12 = sext i32 %.val38.val to i64
  %13 = getelementptr inbounds ptr, ptr %.val31.val.val, i64 %12
  %14 = load ptr, ptr %13, align 8
  %15 = icmp eq ptr %1, %10
  %16 = icmp eq ptr %1, %14
  %or.cond = select i1 %15, i1 true, i1 %16
  br i1 %or.cond, label %50, label %17

17:                                               ; preds = %4
  %18 = getelementptr i8, ptr %10, i64 20
  %.val40 = load i32, ptr %18, align 4
  %19 = and i32 %.val40, 15
  switch i32 %19, label %20 [
    i32 5, label %33
    i32 2, label %33
  ]

20:                                               ; preds = %17
  %.val29 = load ptr, ptr %10, align 8
  %21 = getelementptr i8, ptr %10, i64 32
  %.val30 = load ptr, ptr %21, align 8
  %22 = getelementptr i8, ptr %.val29, i64 32
  %.val29.val = load ptr, ptr %22, align 8
  %.val30.val = load i32, ptr %.val30, align 4
  %23 = getelementptr i8, ptr %.val29.val, i64 8
  %.val29.val.val = load ptr, ptr %23, align 8
  %24 = sext i32 %.val30.val to i64
  %25 = getelementptr inbounds ptr, ptr %.val29.val.val, i64 %24
  %26 = load ptr, ptr %25, align 8
  %27 = getelementptr i8, ptr %.val30, i64 4
  %.val36.val = load i32, ptr %27, align 4
  %28 = sext i32 %.val36.val to i64
  %29 = getelementptr inbounds ptr, ptr %.val29.val.val, i64 %28
  %30 = load ptr, ptr %29, align 8
  %31 = icmp eq ptr %1, %26
  %32 = icmp eq ptr %1, %30
  %or.cond26 = select i1 %31, i1 true, i1 %32
  br i1 %or.cond26, label %50, label %33

33:                                               ; preds = %17, %17, %20
  %34 = getelementptr i8, ptr %14, i64 20
  %.val39 = load i32, ptr %34, align 4
  %35 = and i32 %.val39, 15
  switch i32 %35, label %36 [
    i32 5, label %49
    i32 2, label %49
  ]

36:                                               ; preds = %33
  %.val = load ptr, ptr %14, align 8
  %37 = getelementptr i8, ptr %14, i64 32
  %.val28 = load ptr, ptr %37, align 8
  %38 = getelementptr i8, ptr %.val, i64 32
  %.val.val = load ptr, ptr %38, align 8
  %.val28.val = load i32, ptr %.val28, align 4
  %39 = getelementptr i8, ptr %.val.val, i64 8
  %.val.val.val = load ptr, ptr %39, align 8
  %40 = sext i32 %.val28.val to i64
  %41 = getelementptr inbounds ptr, ptr %.val.val.val, i64 %40
  %42 = load ptr, ptr %41, align 8
  %43 = getelementptr i8, ptr %.val28, i64 4
  %.val34.val = load i32, ptr %43, align 4
  %44 = sext i32 %.val34.val to i64
  %45 = getelementptr inbounds ptr, ptr %.val.val.val, i64 %44
  %46 = load ptr, ptr %45, align 8
  %47 = icmp eq ptr %1, %42
  %48 = icmp eq ptr %1, %46
  %or.cond27 = select i1 %47, i1 true, i1 %48
  br i1 %or.cond27, label %50, label %49

49:                                               ; preds = %33, %33, %36
  br label %50

50:                                               ; preds = %36, %20, %4, %2, %49
  %.0 = phi i32 [ 1, %49 ], [ 1, %2 ], [ 0, %4 ], [ 0, %20 ], [ 0, %36 ]
  ret i32 %.0
}